target datalayout = "e-m:e-p270:32:32-p271:32:32-p272:64:64-i64:64-i128:128-f80:128-n8:16:32:64-S128"
target triple = "x86_64-pc-linux-gnu"

%"class.llvm::StringRef" = type { ptr, i64 }

@.str = private unnamed_addr constant [8 x i8] c"unknown\00", align 1
@.str.138 = private unnamed_addr constant [8 x i8] c"android\00", align 1
@.str.139 = private unnamed_addr constant [7 x i8] c"code16\00", align 1
@.str.140 = private unnamed_addr constant [8 x i8] c"coreclr\00", align 1
@.str.141 = private unnamed_addr constant [7 x i8] c"cygnus\00", align 1
@.str.142 = private unnamed_addr constant [5 x i8] c"eabi\00", align 1
@.str.143 = private unnamed_addr constant [7 x i8] c"eabihf\00", align 1
@.str.144 = private unnamed_addr constant [4 x i8] c"gnu\00", align 1
@.str.145 = private unnamed_addr constant [9 x i8] c"gnuabi64\00", align 1
@.str.146 = private unnamed_addr constant [10 x i8] c"gnuabin32\00", align 1
@.str.147 = private unnamed_addr constant [8 x i8] c"gnueabi\00", align 1
@.str.148 = private unnamed_addr constant [10 x i8] c"gnueabihf\00", align 1
@.str.149 = private unnamed_addr constant [7 x i8] c"gnuf32\00", align 1
@.str.150 = private unnamed_addr constant [7 x i8] c"gnuf64\00", align 1
@.str.151 = private unnamed_addr constant [6 x i8] c"gnusf\00", align 1
@.str.152 = private unnamed_addr constant [7 x i8] c"gnux32\00", align 1
@.str.153 = private unnamed_addr constant [10 x i8] c"gnu_ilp32\00", align 1
@.str.154 = private unnamed_addr constant [8 x i8] c"itanium\00", align 1
@.str.155 = private unnamed_addr constant [5 x i8] c"msvc\00", align 1
@.str.156 = private unnamed_addr constant [7 x i8] c"macabi\00", align 1
@.str.157 = private unnamed_addr constant [5 x i8] c"musl\00", align 1
@.str.158 = private unnamed_addr constant [9 x i8] c"musleabi\00", align 1
@.str.159 = private unnamed_addr constant [11 x i8] c"musleabihf\00", align 1
@.str.160 = private unnamed_addr constant [8 x i8] c"muslx32\00", align 1
@.str.161 = private unnamed_addr constant [10 x i8] c"simulator\00", align 1
@.str.162 = private unnamed_addr constant [6 x i8] c"pixel\00", align 1
@.str.163 = private unnamed_addr constant [7 x i8] c"vertex\00", align 1
@.str.164 = private unnamed_addr constant [9 x i8] c"geometry\00", align 1
@.str.165 = private unnamed_addr constant [5 x i8] c"hull\00", align 1
@.str.166 = private unnamed_addr constant [7 x i8] c"domain\00", align 1
@.str.167 = private unnamed_addr constant [8 x i8] c"compute\00", align 1
@.str.168 = private unnamed_addr constant [8 x i8] c"library\00", align 1
@.str.169 = private unnamed_addr constant [14 x i8] c"raygeneration\00", align 1
@.str.170 = private unnamed_addr constant [13 x i8] c"intersection\00", align 1
@.str.171 = private unnamed_addr constant [7 x i8] c"anyhit\00", align 1
@.str.172 = private unnamed_addr constant [11 x i8] c"closesthit\00", align 1
@.str.173 = private unnamed_addr constant [5 x i8] c"miss\00", align 1
@.str.174 = private unnamed_addr constant [9 x i8] c"callable\00", align 1
@.str.175 = private unnamed_addr constant [5 x i8] c"mesh\00", align 1
@.str.176 = private unnamed_addr constant [14 x i8] c"amplification\00", align 1
@.str.177 = private unnamed_addr constant [7 x i8] c"opencl\00", align 1
@.str.178 = private unnamed_addr constant [5 x i8] c"ohos\00", align 1
@.str.179 = private unnamed_addr constant [10 x i8] c"pauthtest\00", align 1

; Function Attrs: mustprogress nounwind uwtable
define linkonce_odr hidden noundef i64 @_ZNSt11char_traitsIcE6lengthEPKc(ptr noundef %0) #0 comdat align 2 {
  %2 = alloca ptr, align 8
  store ptr %0, ptr %2, align 8
  %3 = load ptr, ptr %2, align 8
  %4 = call i64 @strlen(ptr noundef %3) #7
  ret i64 %4
}

; Function Attrs: mustprogress nounwind uwtable
define linkonce_odr hidden void @_ZN4llvm9StringRefC2EPKc(ptr noundef nonnull align 8 dereferenceable(16) %0, ptr noundef %1) unnamed_addr #0 comdat align 2 {
  %3 = alloca ptr, align 8
  %4 = alloca ptr, align 8
  store ptr %0, ptr %3, align 8
  store ptr %1, ptr %4, align 8
  %5 = load ptr, ptr %3, align 8
  %6 = getelementptr inbounds nuw %"class.llvm::StringRef", ptr %5, i32 0, i32 0
  %7 = load ptr, ptr %4, align 8
  store ptr %7, ptr %6, align 8
  %8 = getelementptr inbounds nuw %"class.llvm::StringRef", ptr %5, i32 0, i32 1
  %9 = load ptr, ptr %4, align 8
  %10 = icmp ne ptr %9, null
  br i1 %10, label %11, label %14

11:                                               ; preds = %2
  %12 = load ptr, ptr %4, align 8
  %13 = call noundef i64 @_ZNSt11char_traitsIcE6lengthEPKc(ptr noundef %12)
  br label %15

14:                                               ; preds = %2
  br label %15

15:                                               ; preds = %14, %11
  %16 = phi i64 [ %13, %11 ], [ 0, %14 ]
  store i64 %16, ptr %8, align 8
  ret void
}

; Function Attrs: mustprogress nounwind uwtable
define dso_local { ptr, i64 } @_ZN4llvm6Triple22getEnvironmentTypeNameENS0_15EnvironmentTypeE(i32 noundef %0) #0 align 2 {
  %2 = alloca %"class.llvm::StringRef", align 8
  %3 = alloca i32, align 4
  store i32 %0, ptr %3, align 4
  %4 = load i32, ptr %3, align 4
  switch i32 %4, label %48 [
    i32 0, label %5
    i32 14, label %6
    i32 11, label %7
    i32 22, label %8
    i32 21, label %9
    i32 12, label %10
    i32 13, label %11
    i32 1, label %12
    i32 3, label %13
    i32 2, label %14
    i32 4, label %15
    i32 5, label %16
    i32 6, label %17
    i32 7, label %18
    i32 8, label %19
    i32 9, label %20
    i32 10, label %21
    i32 20, label %22
    i32 19, label %23
    i32 24, label %24
    i32 15, label %25
    i32 16, label %26
    i32 17, label %27
    i32 18, label %28
    i32 23, label %29
    i32 25, label %30
    i32 26, label %31
    i32 27, label %32
    i32 28, label %33
    i32 29, label %34
    i32 30, label %35
    i32 31, label %36
    i32 32, label %37
    i32 33, label %38
    i32 34, label %39
    i32 35, label %40
    i32 36, label %41
    i32 37, label %42
    i32 38, label %43
    i32 39, label %44
    i32 40, label %45
    i32 41, label %46
    i32 42, label %47
  ]

5:                                                ; preds = %1
  call void @_ZN4llvm9StringRefC2EPKc(ptr noundef nonnull align 8 dereferenceable(16) %2, ptr noundef @.str)
  br label %49

6:                                                ; preds = %1
  call void @_ZN4llvm9StringRefC2EPKc(ptr noundef nonnull align 8 dereferenceable(16) %2, ptr noundef @.str.138)
  br label %49

7:                                                ; preds = %1
  call void @_ZN4llvm9StringRefC2EPKc(ptr noundef nonnull align 8 dereferenceable(16) %2, ptr noundef @.str.139)
  br label %49

8:                                                ; preds = %1
  call void @_ZN4llvm9StringRefC2EPKc(ptr noundef nonnull align 8 dereferenceable(16) %2, ptr noundef @.str.140)
  br label %49

9:                                                ; preds = %1
  call void @_ZN4llvm9StringRefC2EPKc(ptr noundef nonnull align 8 dereferenceable(16) %2, ptr noundef @.str.141)
  br label %49

10:                                               ; preds = %1
  call void @_ZN4llvm9StringRefC2EPKc(ptr noundef nonnull align 8 dereferenceable(16) %2, ptr noundef @.str.142)
  br label %49

11:                                               ; preds = %1
  call void @_ZN4llvm9StringRefC2EPKc(ptr noundef nonnull align 8 dereferenceable(16) %2, ptr noundef @.str.143)
  br label %49

12:                                               ; preds = %1
  call void @_ZN4llvm9StringRefC2EPKc(ptr noundef nonnull align 8 dereferenceable(16) %2, ptr noundef @.str.144)
  br label %49

13:                                               ; preds = %1
  call void @_ZN4llvm9StringRefC2EPKc(ptr noundef nonnull align 8 dereferenceable(16) %2, ptr noundef @.str.145)
  br label %49

14:                                               ; preds = %1
  call void @_ZN4llvm9StringRefC2EPKc(ptr noundef nonnull align 8 dereferenceable(16) %2, ptr noundef @.str.146)
  br label %49

15:                                               ; preds = %1
  call void @_ZN4llvm9StringRefC2EPKc(ptr noundef nonnull align 8 dereferenceable(16) %2, ptr noundef @.str.147)
  br label %49

16:                                               ; preds = %1
  call void @_ZN4llvm9StringRefC2EPKc(ptr noundef nonnull align 8 dereferenceable(16) %2, ptr noundef @.str.148)
  br label %49

17:                                               ; preds = %1
  call void @_ZN4llvm9StringRefC2EPKc(ptr noundef nonnull align 8 dereferenceable(16) %2, ptr noundef @.str.149)
  br label %49

18:                                               ; preds = %1
  call void @_ZN4llvm9StringRefC2EPKc(ptr noundef nonnull align 8 dereferenceable(16) %2, ptr noundef @.str.150)
  br label %49

19:                                               ; preds = %1
  call void @_ZN4llvm9StringRefC2EPKc(ptr noundef nonnull align 8 dereferenceable(16) %2, ptr noundef @.str.151)
  br label %49

20:                                               ; preds = %1
  call void @_ZN4llvm9StringRefC2EPKc(ptr noundef nonnull align 8 dereferenceable(16) %2, ptr noundef @.str.152)
  br label %49

21:                                               ; preds = %1
  call void @_ZN4llvm9StringRefC2EPKc(ptr noundef nonnull align 8 dereferenceable(16) %2, ptr noundef @.str.153)
  br label %49

22:                                               ; preds = %1
  call void @_ZN4llvm9StringRefC2EPKc(ptr noundef nonnull align 8 dereferenceable(16) %2, ptr noundef @.str.154)
  br label %49

23:                                               ; preds = %1
  call void @_ZN4llvm9StringRefC2EPKc(ptr noundef nonnull align 8 dereferenceable(16) %2, ptr noundef @.str.155)
  br label %49

24:                                               ; preds = %1
  call void @_ZN4llvm9StringRefC2EPKc(ptr noundef nonnull align 8 dereferenceable(16) %2, ptr noundef @.str.156)
  br label %49

25:                                               ; preds = %1
  call void @_ZN4llvm9StringRefC2EPKc(ptr noundef nonnull align 8 dereferenceable(16) %2, ptr noundef @.str.157)
  br label %49

26:                                               ; preds = %1
  call void @_ZN4llvm9StringRefC2EPKc(ptr noundef nonnull align 8 dereferenceable(16) %2, ptr noundef @.str.158)
  br label %49

27:                                               ; preds = %1
  call void @_ZN4llvm9StringRefC2EPKc(ptr noundef nonnull align 8 dereferenceable(16) %2, ptr noundef @.str.159)
  br label %49

28:                                               ; preds = %1
  call void @_ZN4llvm9StringRefC2EPKc(ptr noundef nonnull align 8 dereferenceable(16) %2, ptr noundef @.str.160)
  br label %49

29:                                               ; preds = %1
  call void @_ZN4llvm9StringRefC2EPKc(ptr noundef nonnull align 8 dereferenceable(16) %2, ptr noundef @.str.161)
  br label %49

30:                                               ; preds = %1
  call void @_ZN4llvm9StringRefC2EPKc(ptr noundef nonnull align 8 dereferenceable(16) %2, ptr noundef @.str.162)
  br label %49

31:                                               ; preds = %1
  call void @_ZN4llvm9StringRefC2EPKc(ptr noundef nonnull align 8 dereferenceable(16) %2, ptr noundef @.str.163)
  br label %49

32:                                               ; preds = %1
  call void @_ZN4llvm9StringRefC2EPKc(ptr noundef nonnull align 8 dereferenceable(16) %2, ptr noundef @.str.164)
  br label %49

33:                                               ; preds = %1
  call void @_ZN4llvm9StringRefC2EPKc(ptr noundef nonnull align 8 dereferenceable(16) %2, ptr noundef @.str.165)
  br label %49

34:                                               ; preds = %1
  call void @_ZN4llvm9StringRefC2EPKc(ptr noundef nonnull align 8 dereferenceable(16) %2, ptr noundef @.str.166)
  br label %49

35:                                               ; preds = %1
  call void @_ZN4llvm9StringRefC2EPKc(ptr noundef nonnull align 8 dereferenceable(16) %2, ptr noundef @.str.167)
  br label %49

36:                                               ; preds = %1
  call void @_ZN4llvm9StringRefC2EPKc(ptr noundef nonnull align 8 dereferenceable(16) %2, ptr noundef @.str.168)
  br label %49

37:                                               ; preds = %1
  call void @_ZN4llvm9StringRefC2EPKc(ptr noundef nonnull align 8 dereferenceable(16) %2, ptr noundef @.str.169)
  br label %49

38:                                               ; preds = %1
  call void @_ZN4llvm9StringRefC2EPKc(ptr noundef nonnull align 8 dereferenceable(16) %2, ptr noundef @.str.170)
  br label %49

39:                                               ; preds = %1
  call void @_ZN4llvm9StringRefC2EPKc(ptr noundef nonnull align 8 dereferenceable(16) %2, ptr noundef @.str.171)
  br label %49

40:                                               ; preds = %1
  call void @_ZN4llvm9StringRefC2EPKc(ptr noundef nonnull align 8 dereferenceable(16) %2, ptr noundef @.str.172)
  br label %49

41:                                               ; preds = %1
  call void @_ZN4llvm9StringRefC2EPKc(ptr noundef nonnull align 8 dereferenceable(16) %2, ptr noundef @.str.173)
  br label %49

42:                                               ; preds = %1
  call void @_ZN4llvm9StringRefC2EPKc(ptr noundef nonnull align 8 dereferenceable(16) %2, ptr noundef @.str.174)
  br label %49

43:                                               ; preds = %1
  call void @_ZN4llvm9StringRefC2EPKc(ptr noundef nonnull align 8 dereferenceable(16) %2, ptr noundef @.str.175)
  br label %49

44:                                               ; preds = %1
  call void @_ZN4llvm9StringRefC2EPKc(ptr noundef nonnull align 8 dereferenceable(16) %2, ptr noundef @.str.176)
  br label %49

45:                                               ; preds = %1
  call void @_ZN4llvm9StringRefC2EPKc(ptr noundef nonnull align 8 dereferenceable(16) %2, ptr noundef @.str.177)
  br label %49

46:                                               ; preds = %1
  call void @_ZN4llvm9StringRefC2EPKc(ptr noundef nonnull align 8 dereferenceable(16) %2, ptr noundef @.str.178)
  br label %49

47:                                               ; preds = %1
  call void @_ZN4llvm9StringRefC2EPKc(ptr noundef nonnull align 8 dereferenceable(16) %2, ptr noundef @.str.179)
  br label %49

48:                                               ; preds = %1
  unreachable

49:                                               ; preds = %47, %46, %45, %44, %43, %42, %41, %40, %39, %38, %37, %36, %35, %34, %33, %32, %31, %30, %29, %28, %27, %26, %25, %24, %23, %22, %21, %20, %19, %18, %17, %16, %15, %14, %13, %12, %11, %10, %9, %8, %7, %6, %5
  %50 = load { ptr, i64 }, ptr %2, align 8
  ret { ptr, i64 } %50
}